target datalayout = "e-m:e-p270:32:32-p271:32:32-p272:64:64-i64:64-i128:128-f80:128-n8:16:32:64-S128"
target triple = "x86_64-pc-linux-gnu"

@.str.4 = private unnamed_addr constant [2 x i8] c"\0A\00", align 1
@.str.5 = private unnamed_addr constant [29 x i8] c"    synth_anlogic [options]\0A\00", align 1
@.str.6 = private unnamed_addr constant [48 x i8] c"This command runs synthesis for Anlogic FPGAs.\0A\00", align 1
@.str.7 = private unnamed_addr constant [19 x i8] c"    -top <module>\0A\00", align 1
@.str.8 = private unnamed_addr constant [48 x i8] c"        use the specified module as top module\0A\00", align 1
@.str.9 = private unnamed_addr constant [18 x i8] c"    -edif <file>\0A\00", align 1
@.str.10 = private unnamed_addr constant [80 x i8] c"        write the design to the specified EDIF file. writing of an output file\0A\00", align 1
@.str.11 = private unnamed_addr constant [56 x i8] c"        is omitted if this parameter is not specified.\0A\00", align 1
@.str.12 = private unnamed_addr constant [18 x i8] c"    -json <file>\0A\00", align 1
@.str.13 = private unnamed_addr constant [80 x i8] c"        write the design to the specified JSON file. writing of an output file\0A\00", align 1
@.str.14 = private unnamed_addr constant [34 x i8] c"    -run <from_label>:<to_label>\0A\00", align 1
@.str.15 = private unnamed_addr constant [72 x i8] c"        only run the commands between the labels (see below). an empty\0A\00", align 1
@.str.16 = private unnamed_addr constant [68 x i8] c"        from label is synonymous to 'begin', and empty to label is\0A\00", align 1
@.str.17 = private unnamed_addr constant [52 x i8] c"        synonymous to the end of the command list.\0A\00", align 1
@.str.18 = private unnamed_addr constant [16 x i8] c"    -noflatten\0A\00", align 1
@.str.19 = private unnamed_addr constant [48 x i8] c"        do not flatten design before synthesis\0A\00", align 1
@.str.20 = private unnamed_addr constant [13 x i8] c"    -retime\0A\00", align 1
@.str.21 = private unnamed_addr constant [44 x i8] c"        run 'abc' with '-dff -D 1' options\0A\00", align 1
@.str.22 = private unnamed_addr constant [15 x i8] c"    -nolutram\0A\00", align 1
@.str.23 = private unnamed_addr constant [62 x i8] c"        do not use EG_LOGIC_DRAM16X4 cells in output netlist\0A\00", align 1
@.str.24 = private unnamed_addr constant [13 x i8] c"    -nobram\0A\00", align 1
@.str.25 = private unnamed_addr constant [74 x i8] c"        do not use EG_PHY_BRAM or EG_PHY_BRAM32K cells in output netlist\0A\00", align 1
@.str.26 = private unnamed_addr constant [64 x i8] c"The following commands are executed by this synthesis command:\0A\00", align 1

; Function Attrs: mustprogress uwtable
define internal void @_ZN12_GLOBAL__N_116SynthAnlogicPass4helpEv(ptr noundef nonnull align 8 dereferenceable(284) %0) unnamed_addr #4 align 2 {
  %2 = alloca ptr, align 8
  store ptr %0, ptr %2, align 8, !tbaa !6
  %3 = load ptr, ptr %2, align 8
  call void (ptr, ...) @_ZN5Yosys3logEPKcz(ptr noundef @.str.4)
  call void (ptr, ...) @_ZN5Yosys3logEPKcz(ptr noundef @.str.5)
  call void (ptr, ...) @_ZN5Yosys3logEPKcz(ptr noundef @.str.4)
  call void (ptr, ...) @_ZN5Yosys3logEPKcz(ptr noundef @.str.6)
  call void (ptr, ...) @_ZN5Yosys3logEPKcz(ptr noundef @.str.4)
  call void (ptr, ...) @_ZN5Yosys3logEPKcz(ptr noundef @.str.7)
  call void (ptr, ...) @_ZN5Yosys3logEPKcz(ptr noundef @.str.8)
  call void (ptr, ...) @_ZN5Yosys3logEPKcz(ptr noundef @.str.4)
  call void (ptr, ...) @_ZN5Yosys3logEPKcz(ptr noundef @.str.9)
  call void (ptr, ...) @_ZN5Yosys3logEPKcz(ptr noundef @.str.10)
  call void (ptr, ...) @_ZN5Yosys3logEPKcz(ptr noundef @.str.11)
  call void (ptr, ...) @_ZN5Yosys3logEPKcz(ptr noundef @.str.4)
  call void (ptr, ...) @_ZN5Yosys3logEPKcz(ptr noundef @.str.12)
  call void (ptr, ...) @_ZN5Yosys3logEPKcz(ptr noundef @.str.13)
  call void (ptr, ...) @_ZN5Yosys3logEPKcz(ptr noundef @.str.11)
  call void (ptr, ...) @_ZN5Yosys3logEPKcz(ptr noundef @.str.4)
  call void (ptr, ...) @_ZN5Yosys3logEPKcz(ptr noundef @.str.14)
  call void (ptr, ...) @_ZN5Yosys3logEPKcz(ptr noundef @.str.15)
  call void (ptr, ...) @_ZN5Yosys3logEPKcz(ptr noundef @.str.16)
  call void (ptr, ...) @_ZN5Yosys3logEPKcz(ptr noundef @.str.17)
  call void (ptr, ...) @_ZN5Yosys3logEPKcz(ptr noundef @.str.4)
  call void (ptr, ...) @_ZN5Yosys3logEPKcz(ptr noundef @.str.18)
  call void (ptr, ...) @_ZN5Yosys3logEPKcz(ptr noundef @.str.19)
  call void (ptr, ...) @_ZN5Yosys3logEPKcz(ptr noundef @.str.4)
  call void (ptr, ...) @_ZN5Yosys3logEPKcz(ptr noundef @.str.20)
  call void (ptr, ...) @_ZN5Yosys3logEPKcz(ptr noundef @.str.21)
  call void (ptr, ...) @_ZN5Yosys3logEPKcz(ptr noundef @.str.4)
  call void (ptr, ...) @_ZN5Yosys3logEPKcz(ptr noundef @.str.22)
  call void (ptr, ...) @_ZN5Yosys3logEPKcz(ptr noundef @.str.23)
  call void (ptr, ...) @_ZN5Yosys3logEPKcz(ptr noundef @.str.4)
  call void (ptr, ...) @_ZN5Yosys3logEPKcz(ptr noundef @.str.24)
  call void (ptr, ...) @_ZN5Yosys3logEPKcz(ptr noundef @.str.25)
  call void (ptr, ...) @_ZN5Yosys3logEPKcz(ptr noundef @.str.4)
  call void (ptr, ...) @_ZN5Yosys3logEPKcz(ptr noundef @.str.4)
  call void (ptr, ...) @_ZN5Yosys3logEPKcz(ptr noundef @.str.26)
  call void @_ZN5Yosys10ScriptPass11help_scriptEv(ptr noundef nonnull align 8 dereferenceable(184) %3)
  call void (ptr, ...) @_ZN5Yosys3logEPKcz(ptr noundef @.str.4)
  ret void
}